; Function Attrs: mustprogress uwtable
define hidden void @_ZN11mpf_manager18to_rational_stringB5cxx11ERK3mpf(ptr noalias sret(%"class.std::__cxx11::basic_string") align 8 %agg.result, ptr noundef nonnull align 8 dereferenceable(840) %this, ptr noundef nonnull align 8 dereferenceable(32) %x) local_unnamed_addr #5 align 2 personality ptr @__gxx_personality_v0 {
entry:
  %q = alloca %class._scoped_numeral, align 8
  store ptr %this, ptr %q, align 8
  %m_num.i = getelementptr inbounds i8, ptr %q, i64 8
  store i32 0, ptr %m_num.i, align 8
  %m_kind.i.i.i = getelementptr inbounds i8, ptr %q, i64 12
  store i8 0, ptr %m_kind.i.i.i, align 4
  %m_ptr.i.i.i = getelementptr inbounds i8, ptr %q, i64 16
  store ptr null, ptr %m_ptr.i.i.i, align 8
  %m_den.i.i = getelementptr inbounds i8, ptr %q, i64 24
  store i32 1, ptr %m_den.i.i, align 8
  %m_kind.i1.i.i = getelementptr inbounds i8, ptr %q, i64 28
  store i8 0, ptr %m_kind.i1.i.i, align 4
  %m_ptr.i4.i.i = getelementptr inbounds i8, ptr %q, i64 32
  store ptr null, ptr %m_ptr.i4.i.i, align 8
  invoke void @_ZN11mpf_manager11to_rationalERK3mpfR11mpq_managerILb0EER3mpq(ptr noundef nonnull align 8 dereferenceable(840) %this, ptr noundef nonnull align 8 dereferenceable(32) %x, ptr noundef nonnull align 8 dereferenceable(728) %this, ptr noundef nonnull align 8 dereferenceable(32) %m_num.i)
          to label %invoke.cont unwind label %lpad

invoke.cont:                                      ; preds = %entry
  invoke void @_ZNK11mpq_managerILb0EE9to_stringB5cxx11ERK3mpq(ptr sret(%"class.std::__cxx11::basic_string") align 8 %agg.result, ptr noundef nonnull align 8 dereferenceable(728) %this, ptr noundef nonnull align 8 dereferenceable(32) %m_num.i)
          to label %invoke.cont4 unwind label %lpad

invoke.cont4:                                     ; preds = %invoke.cont
  %0 = load ptr, ptr %q, align 8
  invoke void @_ZN11mpz_managerILb0EE3delEPS0_R3mpz(ptr noundef nonnull %0, ptr noundef nonnull align 8 dereferenceable(16) %m_num.i)
          to label %.noexc.i unwind label %terminate.lpad.i

.noexc.i:                                         ; preds = %invoke.cont4
  invoke void @_ZN11mpz_managerILb0EE3delEPS0_R3mpz(ptr noundef nonnull %0, ptr noundef nonnull align 8 dereferenceable(16) %m_den.i.i)
          to label %_ZN15_scoped_numeralI11mpq_managerILb0EEED2Ev.exit unwind label %terminate.lpad.i

terminate.lpad.i:                                 ; preds = %.noexc.i, %invoke.cont4
  %1 = landingpad { ptr, i32 }
          catch ptr null
  %2 = extractvalue { ptr, i32 } %1, 0
  call void @__clang_call_terminate(ptr %2) #18
  unreachable

_ZN15_scoped_numeralI11mpq_managerILb0EEED2Ev.exit: ; preds = %.noexc.i
  ret void

lpad:                                             ; preds = %entry, %invoke.cont
  %3 = landingpad { ptr, i32 }
          cleanup
  call void @_ZN15_scoped_numeralI11mpq_managerILb0EEED2Ev(ptr noundef nonnull align 8 dereferenceable(40) %q) #17
  resume { ptr, i32 } %3
}